	.file	"main.c"
	.intel_syntax noprefix
	.text
	.globl	main
	.type	main, @function
main:
.LFB0:
	.cfi_startproc
	lea	ecx, 4[esp]
	.cfi_def_cfa 1, 0
	and	esp, -16
	push	DWORD PTR -4[ecx]
	push	ebp
	.cfi_escape 0x10,0x5,0x2,0x75,0
	mov	ebp, esp
	push	ebx
	push	ecx
	.cfi_escape 0xf,0x3,0x75,0x78,0x6
	.cfi_escape 0x10,0x3,0x2,0x75,0x7c
	sub	esp, 16
	call	__x86.get_pc_thunk.ax
	add	eax, OFFSET FLAT:_GLOBAL_OFFSET_TABLE_
	mov	eax, DWORD PTR gs:20
	mov	DWORD PTR -12[ebp], eax
	xor	eax, eax
	mov	eax, esp
	mov	ecx, eax
	mov	DWORD PTR -24[ebp], 100
	mov	eax, DWORD PTR -24[ebp]
	lea	edx, -1[eax]
	mov	DWORD PTR -20[ebp], edx
	sal	eax, 2
	lea	edx, 3[eax]
	mov	eax, 16
	sub	eax, 1
	add	eax, edx
	mov	ebx, 16
	mov	edx, 0
	div	ebx
	imul	eax, eax, 16
	sub	esp, eax
	mov	eax, esp
	add	eax, 3
	shr	eax, 2
	sal	eax, 2
	mov	DWORD PTR -16[ebp], eax
	mov	esp, ecx
	nop
	mov	eax, DWORD PTR -12[ebp]
	xor	eax, DWORD PTR gs:20
	je	.L2
	call	__stack_chk_fail_local
.L2:
	lea	esp, -8[ebp]
	pop	ecx
	.cfi_restore 1
	.cfi_def_cfa 1, 0
	pop	ebx
	.cfi_restore 3
	pop	ebp
	.cfi_restore 5
	lea	esp, -4[ecx]
	.cfi_def_cfa 4, 4
	ret
	.cfi_endproc
.LFE0:
	.size	main, .-main
	.section	.text.__x86.get_pc_thunk.ax,"axG",@progbits,__x86.get_pc_thunk.ax,comdat
	.globl	__x86.get_pc_thunk.ax
	.hidden	__x86.get_pc_thunk.ax
	.type	__x86.get_pc_thunk.ax, @function
__x86.get_pc_thunk.ax:
.LFB1:
	.cfi_startproc
	mov	eax, DWORD PTR [esp]
	ret
	.cfi_endproc
.LFE1:
	.hidden	__stack_chk_fail_local
	.ident	"GCC: (Ubuntu 7.4.0-1ubuntu1~18.04.1) 7.4.0"
	.section	.note.GNU-stack,"",@progbits
